
week5-2.elf:     file format elf32-avr

Sections:
Idx Name          Size      VMA       LMA       File off  Algn
  0 .data         00000000  00800100  00800100  0000022e  2**0
                  CONTENTS, ALLOC, LOAD, DATA
  1 .text         000001ba  00000000  00000000  00000074  2**1
                  CONTENTS, ALLOC, LOAD, READONLY, CODE
  2 .bss          00000002  00800100  00800100  0000022e  2**0
                  ALLOC
  3 .comment      00000030  00000000  00000000  0000022e  2**0
                  CONTENTS, READONLY
  4 .note.gnu.avr.deviceinfo 0000003c  00000000  00000000  00000260  2**2
                  CONTENTS, READONLY
  5 .debug_aranges 00000040  00000000  00000000  0000029c  2**0
                  CONTENTS, READONLY, DEBUGGING
  6 .debug_info   00000940  00000000  00000000  000002dc  2**0
                  CONTENTS, READONLY, DEBUGGING
  7 .debug_abbrev 00000838  00000000  00000000  00000c1c  2**0
                  CONTENTS, READONLY, DEBUGGING
  8 .debug_line   000003ac  00000000  00000000  00001454  2**0
                  CONTENTS, READONLY, DEBUGGING
  9 .debug_frame  00000094  00000000  00000000  00001800  2**2
                  CONTENTS, READONLY, DEBUGGING
 10 .debug_str    0000045c  00000000  00000000  00001894  2**0
                  CONTENTS, READONLY, DEBUGGING
 11 .debug_loc    00000167  00000000  00000000  00001cf0  2**0
                  CONTENTS, READONLY, DEBUGGING
 12 .debug_ranges 00000030  00000000  00000000  00001e57  2**0
                  CONTENTS, READONLY, DEBUGGING

Disassembly of section .text:

00000000 <__vectors>:
   0:	45 c0       	rjmp	.+138    	; 0x8c <__ctors_end>
   2:	00 00       	nop
   4:	53 c0       	rjmp	.+166    	; 0xac <__bad_interrupt>
   6:	00 00       	nop
   8:	51 c0       	rjmp	.+162    	; 0xac <__bad_interrupt>
   a:	00 00       	nop
   c:	4f c0       	rjmp	.+158    	; 0xac <__bad_interrupt>
   e:	00 00       	nop
  10:	4d c0       	rjmp	.+154    	; 0xac <__bad_interrupt>
  12:	00 00       	nop
  14:	4b c0       	rjmp	.+150    	; 0xac <__bad_interrupt>
  16:	00 00       	nop
  18:	4a c0       	rjmp	.+148    	; 0xae <__vector_6>
  1a:	00 00       	nop
  1c:	59 c0       	rjmp	.+178    	; 0xd0 <__vector_7>
  1e:	00 00       	nop
  20:	6c c0       	rjmp	.+216    	; 0xfa <__vector_8>
  22:	00 00       	nop
  24:	43 c0       	rjmp	.+134    	; 0xac <__bad_interrupt>
  26:	00 00       	nop
  28:	41 c0       	rjmp	.+130    	; 0xac <__bad_interrupt>
  2a:	00 00       	nop
  2c:	3f c0       	rjmp	.+126    	; 0xac <__bad_interrupt>
  2e:	00 00       	nop
  30:	3d c0       	rjmp	.+122    	; 0xac <__bad_interrupt>
  32:	00 00       	nop
  34:	3b c0       	rjmp	.+118    	; 0xac <__bad_interrupt>
  36:	00 00       	nop
  38:	39 c0       	rjmp	.+114    	; 0xac <__bad_interrupt>
  3a:	00 00       	nop
  3c:	37 c0       	rjmp	.+110    	; 0xac <__bad_interrupt>
  3e:	00 00       	nop
  40:	35 c0       	rjmp	.+106    	; 0xac <__bad_interrupt>
  42:	00 00       	nop
  44:	33 c0       	rjmp	.+102    	; 0xac <__bad_interrupt>
  46:	00 00       	nop
  48:	31 c0       	rjmp	.+98     	; 0xac <__bad_interrupt>
  4a:	00 00       	nop
  4c:	2f c0       	rjmp	.+94     	; 0xac <__bad_interrupt>
  4e:	00 00       	nop
  50:	2d c0       	rjmp	.+90     	; 0xac <__bad_interrupt>
  52:	00 00       	nop
  54:	2b c0       	rjmp	.+86     	; 0xac <__bad_interrupt>
  56:	00 00       	nop
  58:	29 c0       	rjmp	.+82     	; 0xac <__bad_interrupt>
  5a:	00 00       	nop
  5c:	27 c0       	rjmp	.+78     	; 0xac <__bad_interrupt>
  5e:	00 00       	nop
  60:	25 c0       	rjmp	.+74     	; 0xac <__bad_interrupt>
  62:	00 00       	nop
  64:	23 c0       	rjmp	.+70     	; 0xac <__bad_interrupt>
  66:	00 00       	nop
  68:	21 c0       	rjmp	.+66     	; 0xac <__bad_interrupt>
  6a:	00 00       	nop
  6c:	1f c0       	rjmp	.+62     	; 0xac <__bad_interrupt>
  6e:	00 00       	nop
  70:	1d c0       	rjmp	.+58     	; 0xac <__bad_interrupt>
  72:	00 00       	nop
  74:	1b c0       	rjmp	.+54     	; 0xac <__bad_interrupt>
  76:	00 00       	nop
  78:	19 c0       	rjmp	.+50     	; 0xac <__bad_interrupt>
  7a:	00 00       	nop
  7c:	17 c0       	rjmp	.+46     	; 0xac <__bad_interrupt>
  7e:	00 00       	nop
  80:	15 c0       	rjmp	.+42     	; 0xac <__bad_interrupt>
  82:	00 00       	nop
  84:	13 c0       	rjmp	.+38     	; 0xac <__bad_interrupt>
  86:	00 00       	nop
  88:	11 c0       	rjmp	.+34     	; 0xac <__bad_interrupt>
	...

0000008c <__ctors_end>:
  8c:	11 24       	eor	r1, r1
  8e:	1f be       	out	0x3f, r1	; 63
  90:	cf ef       	ldi	r28, 0xFF	; 255
  92:	d0 e1       	ldi	r29, 0x10	; 16
  94:	de bf       	out	0x3e, r29	; 62
  96:	cd bf       	out	0x3d, r28	; 61

00000098 <__do_clear_bss>:
  98:	21 e0       	ldi	r18, 0x01	; 1
  9a:	a0 e0       	ldi	r26, 0x00	; 0
  9c:	b1 e0       	ldi	r27, 0x01	; 1
  9e:	01 c0       	rjmp	.+2      	; 0xa2 <.do_clear_bss_start>

000000a0 <.do_clear_bss_loop>:
  a0:	1d 92       	st	X+, r1

000000a2 <.do_clear_bss_start>:
  a2:	a2 30       	cpi	r26, 0x02	; 2
  a4:	b2 07       	cpc	r27, r18
  a6:	e1 f7       	brne	.-8      	; 0xa0 <.do_clear_bss_loop>
  a8:	4c d0       	rcall	.+152    	; 0x142 <main>
  aa:	85 c0       	rjmp	.+266    	; 0x1b6 <_exit>

000000ac <__bad_interrupt>:
  ac:	a9 cf       	rjmp	.-174    	; 0x0 <__vectors>

000000ae <__vector_6>:
volatile unsigned char led_on;
volatile unsigned char period;

void wait();

ISR(INT5_vect){	period++;}
  ae:	1f 92       	push	r1
  b0:	0f 92       	push	r0
  b2:	0f b6       	in	r0, 0x3f	; 63
  b4:	0f 92       	push	r0
  b6:	11 24       	eor	r1, r1
  b8:	8f 93       	push	r24
  ba:	80 91 01 01 	lds	r24, 0x0101	; 0x800101 <period>
  be:	8f 5f       	subi	r24, 0xFF	; 255
  c0:	80 93 01 01 	sts	0x0101, r24	; 0x800101 <period>
  c4:	8f 91       	pop	r24
  c6:	0f 90       	pop	r0
  c8:	0f be       	out	0x3f, r0	; 63
  ca:	0f 90       	pop	r0
  cc:	1f 90       	pop	r1
  ce:	18 95       	reti

000000d0 <__vector_7>:
ISR(INT6_vect){
  d0:	1f 92       	push	r1
  d2:	0f 92       	push	r0
  d4:	0f b6       	in	r0, 0x3f	; 63
  d6:	0f 92       	push	r0
  d8:	11 24       	eor	r1, r1
  da:	8f 93       	push	r24
	if(period>1)
  dc:	80 91 01 01 	lds	r24, 0x0101	; 0x800101 <period>
  e0:	82 30       	cpi	r24, 0x02	; 2
  e2:	28 f0       	brcs	.+10     	; 0xee <__vector_7+0x1e>
	period--;
  e4:	80 91 01 01 	lds	r24, 0x0101	; 0x800101 <period>
  e8:	81 50       	subi	r24, 0x01	; 1
  ea:	80 93 01 01 	sts	0x0101, r24	; 0x800101 <period>
}
  ee:	8f 91       	pop	r24
  f0:	0f 90       	pop	r0
  f2:	0f be       	out	0x3f, r0	; 63
  f4:	0f 90       	pop	r0
  f6:	1f 90       	pop	r1
  f8:	18 95       	reti

000000fa <__vector_8>:
ISR(INT7_vect){
  fa:	1f 92       	push	r1
  fc:	0f 92       	push	r0
  fe:	0f b6       	in	r0, 0x3f	; 63
 100:	0f 92       	push	r0
 102:	11 24       	eor	r1, r1
 104:	8f 93       	push	r24
	if (led_on) {
 106:	80 91 00 01 	lds	r24, 0x0100	; 0x800100 <__DATA_REGION_ORIGIN__>
 10a:	88 23       	and	r24, r24
 10c:	19 f0       	breq	.+6      	; 0x114 <__vector_8+0x1a>
		led_on = 0;
 10e:	10 92 00 01 	sts	0x0100, r1	; 0x800100 <__DATA_REGION_ORIGIN__>
 112:	03 c0       	rjmp	.+6      	; 0x11a <__vector_8+0x20>
	}
	else {
		led_on = 1;
 114:	81 e0       	ldi	r24, 0x01	; 1
 116:	80 93 00 01 	sts	0x0100, r24	; 0x800100 <__DATA_REGION_ORIGIN__>
	}
}
 11a:	8f 91       	pop	r24
 11c:	0f 90       	pop	r0
 11e:	0f be       	out	0x3f, r0	; 63
 120:	0f 90       	pop	r0
 122:	1f 90       	pop	r1
 124:	18 95       	reti

00000126 <wait>:
	}
}

void wait(){
	unsigned char i;
	for(i=0;i<period;i++){
 126:	80 e0       	ldi	r24, 0x00	; 0
 128:	07 c0       	rjmp	.+14     	; 0x138 <wait+0x12>
	#else
		//round up by default
		__ticks_dc = (uint32_t)(ceil(fabs(__tmp)));
	#endif

	__builtin_avr_delay_cycles(__ticks_dc);
 12a:	ef e3       	ldi	r30, 0x3F	; 63
 12c:	fc e9       	ldi	r31, 0x9C	; 156
 12e:	31 97       	sbiw	r30, 0x01	; 1
 130:	f1 f7       	brne	.-4      	; 0x12e <wait+0x8>
 132:	00 c0       	rjmp	.+0      	; 0x134 <wait+0xe>
 134:	00 00       	nop
 136:	8f 5f       	subi	r24, 0xFF	; 255
 138:	90 91 01 01 	lds	r25, 0x0101	; 0x800101 <period>
 13c:	89 17       	cp	r24, r25
 13e:	a8 f3       	brcs	.-22     	; 0x12a <wait+0x4>
		_delay_ms(100);
	}
 140:	08 95       	ret

00000142 <main>:
	}
}

int main(void){
	unsigned char pos;
	period=1;
 142:	91 e0       	ldi	r25, 0x01	; 1
 144:	90 93 01 01 	sts	0x0101, r25	; 0x800101 <period>
	
	DDRA = 0b11111111; // 출력 설정
 148:	8f ef       	ldi	r24, 0xFF	; 255
 14a:	8a bb       	out	0x1a, r24	; 26
	LED=0b00000000;
 14c:	1b ba       	out	0x1b, r1	; 27
	DDRE = 0b00000000; // 입력 설정
 14e:	12 b8       	out	0x02, r1	; 2
	PORTE = 0b11100000; // 풀업저항 설정
 150:	80 ee       	ldi	r24, 0xE0	; 224
 152:	83 b9       	out	0x03, r24	; 3
	
	EICRB = 0b10101000; //인터럽트 트리거 방식 설정(falling edge)
 154:	28 ea       	ldi	r18, 0xA8	; 168
 156:	2a bf       	out	0x3a, r18	; 58
	EIMSK = 0b11100000; //인터럽트 허용 설정
 158:	89 bf       	out	0x39, r24	; 57
	SREG |= 0x80; //전체 인트럽트 허가
 15a:	8f b7       	in	r24, 0x3f	; 63
 15c:	80 68       	ori	r24, 0x80	; 128
 15e:	8f bf       	out	0x3f, r24	; 63
	led_on = 1;
 160:	90 93 00 01 	sts	0x0100, r25	; 0x800100 <__DATA_REGION_ORIGIN__>
	
	while(1) {
		if(led_on==1){
 164:	80 91 00 01 	lds	r24, 0x0100	; 0x800100 <__DATA_REGION_ORIGIN__>
 168:	81 30       	cpi	r24, 0x01	; 1
 16a:	e1 f7       	brne	.-8      	; 0x164 <main+0x22>
 16c:	10 c0       	rjmp	.+32     	; 0x18e <main+0x4c>
			for (pos=0xfe;pos!=0x7f;pos=((pos<<1)|0x01)){
				if(led_on==0){
 16e:	80 91 00 01 	lds	r24, 0x0100	; 0x800100 <__DATA_REGION_ORIGIN__>
 172:	81 11       	cpse	r24, r1
 174:	03 c0       	rjmp	.+6      	; 0x17c <main+0x3a>
					LED=0XFF;
 176:	8f ef       	ldi	r24, 0xFF	; 255
 178:	8b bb       	out	0x1b, r24	; 27
					break;
 17a:	1a c0       	rjmp	.+52     	; 0x1b0 <main+0x6e>
				}
				wait();
 17c:	d4 df       	rcall	.-88     	; 0x126 <wait>
				LED=pos;
 17e:	cb bb       	out	0x1b, r28	; 27
	SREG |= 0x80; //전체 인트럽트 허가
	led_on = 1;
	
	while(1) {
		if(led_on==1){
			for (pos=0xfe;pos!=0x7f;pos=((pos<<1)|0x01)){
 180:	8c 2f       	mov	r24, r28
 182:	90 e0       	ldi	r25, 0x00	; 0
 184:	88 0f       	add	r24, r24
 186:	99 1f       	adc	r25, r25
 188:	c8 2f       	mov	r28, r24
 18a:	c1 60       	ori	r28, 0x01	; 1
 18c:	01 c0       	rjmp	.+2      	; 0x190 <main+0x4e>
 18e:	ce ef       	ldi	r28, 0xFE	; 254
 190:	cf 37       	cpi	r28, 0x7F	; 127
 192:	69 f7       	brne	.-38     	; 0x16e <main+0x2c>
 194:	0d c0       	rjmp	.+26     	; 0x1b0 <main+0x6e>
				}
				wait();
				LED=pos;
			}
			for (;pos!=0xfe;pos=((pos>>1)|0x80)){
				if(led_on==0){
 196:	80 91 00 01 	lds	r24, 0x0100	; 0x800100 <__DATA_REGION_ORIGIN__>
 19a:	81 11       	cpse	r24, r1
 19c:	03 c0       	rjmp	.+6      	; 0x1a4 <main+0x62>
					LED=0XFF;
 19e:	8f ef       	ldi	r24, 0xFF	; 255
 1a0:	8b bb       	out	0x1b, r24	; 27
					break;
				}
				wait();
 1a2:	e0 cf       	rjmp	.-64     	; 0x164 <main+0x22>
 1a4:	c0 df       	rcall	.-128    	; 0x126 <wait>
				LED=pos;
 1a6:	cb bb       	out	0x1b, r28	; 27
					break;
				}
				wait();
				LED=pos;
			}
			for (;pos!=0xfe;pos=((pos>>1)|0x80)){
 1a8:	8c 2f       	mov	r24, r28
 1aa:	86 95       	lsr	r24
 1ac:	c8 2f       	mov	r28, r24
 1ae:	c0 68       	ori	r28, 0x80	; 128
 1b0:	ce 3f       	cpi	r28, 0xFE	; 254
 1b2:	89 f7       	brne	.-30     	; 0x196 <main+0x54>
 1b4:	d7 cf       	rjmp	.-82     	; 0x164 <main+0x22>

000001b6 <_exit>:
 1b6:	f8 94       	cli

000001b8 <__stop_program>:
 1b8:	ff cf       	rjmp	.-2      	; 0x1b8 <__stop_program>
